target datalayout = "e-m:e-p270:32:32-p271:32:32-p272:64:64-i64:64-i128:128-f80:128-n8:16:32:64-S128"
target triple = "x86_64-pc-linux-gnu"

@.str = private unnamed_addr constant [122 x i8] c"generated/home/dtcxzyw/WorkSpace/Projects/compilers/llvm-opt-benchmark/bench/libquic/libquic/boringssl/crypto/ec/simple.c\00", align 1

; Function Attrs: nounwind uwtable
define hidden i32 @ec_GFp_simple_point_set_affine_coordinates(ptr noundef %0, ptr noundef %1, ptr noundef %2, ptr noundef %3, ptr noundef %4) #0 {
  %6 = alloca i32, align 4
  %7 = alloca ptr, align 8
  %8 = alloca ptr, align 8
  %9 = alloca ptr, align 8
  %10 = alloca ptr, align 8
  %11 = alloca ptr, align 8
  store ptr %0, ptr %7, align 8, !tbaa !6
  store ptr %1, ptr %8, align 8, !tbaa !28
  store ptr %2, ptr %9, align 8, !tbaa !19
  store ptr %3, ptr %10, align 8, !tbaa !19
  store ptr %4, ptr %11, align 8, !tbaa !21
  %12 = load ptr, ptr %9, align 8, !tbaa !19
  %13 = icmp eq ptr %12, null
  br i1 %13, label %17, label %14

14:                                               ; preds = %5
  %15 = load ptr, ptr %10, align 8, !tbaa !19
  %16 = icmp eq ptr %15, null
  br i1 %16, label %17, label %18

17:                                               ; preds = %14, %5
  call void @ERR_put_error(i32 noundef 15, i32 noundef 0, i32 noundef 67, ptr noundef @.str, i32 noundef 363)
  store i32 0, ptr %6, align 4
  br label %26

18:                                               ; preds = %14
  %19 = load ptr, ptr %7, align 8, !tbaa !6
  %20 = load ptr, ptr %8, align 8, !tbaa !28
  %21 = load ptr, ptr %9, align 8, !tbaa !19
  %22 = load ptr, ptr %10, align 8, !tbaa !19
  %23 = call ptr @BN_value_one()
  %24 = load ptr, ptr %11, align 8, !tbaa !21
  %25 = call i32 @ec_point_set_Jprojective_coordinates_GFp(ptr noundef %19, ptr noundef %20, ptr noundef %21, ptr noundef %22, ptr noundef %23, ptr noundef %24)
  store i32 %25, ptr %6, align 4
  br label %26

26:                                               ; preds = %18, %17
  %27 = load i32, ptr %6, align 4
  ret i32 %27
}