; Function Attrs: nounwind uwtable
define hidden i32 @ec_GFp_simple_point_set_affine_coordinates(ptr noundef %0, ptr noundef %1, ptr noundef %2, ptr noundef %3, ptr noundef %4) local_unnamed_addr #0 {
  %6 = icmp eq ptr %2, null
  %7 = icmp eq ptr %3, null
  %or.cond = or i1 %6, %7
  br i1 %or.cond, label %8, label %9

8:                                                ; preds = %5
  tail call void @ERR_put_error(i32 noundef 15, i32 noundef 0, i32 noundef 67, ptr noundef nonnull @.str, i32 noundef 363) #5
  br label %12

9:                                                ; preds = %5
  %10 = tail call ptr @BN_value_one() #5
  %11 = tail call i32 @ec_point_set_Jprojective_coordinates_GFp(ptr noundef %0, ptr noundef %1, ptr noundef nonnull %2, ptr noundef nonnull %3, ptr noundef %10, ptr noundef %4) #5
  br label %12

12:                                               ; preds = %9, %8
  %.0 = phi i32 [ 0, %8 ], [ %11, %9 ]
  ret i32 %.0
}